target datalayout = "e-m:e-p270:32:32-p271:32:32-p272:64:64-i64:64-i128:128-f80:128-n8:16:32:64-S128"
target triple = "x86_64-pc-linux-gnu"

%struct.Ivy_Man_t_ = type { ptr, ptr, ptr, ptr, ptr, %struct.Ivy_Obj_t_, [8 x i32], i32, i32, ptr, i32, i32, i32, i32, ptr, i32, ptr, ptr, ptr, i32, ptr, ptr, ptr, i64, i64 }
%struct.Ivy_Obj_t_ = type { i32, i32, i32, i32, ptr, ptr, ptr, ptr, ptr, ptr, ptr, ptr }

; Function Attrs: inlinehint nounwind uwtable
define internal ptr @Ivy_Regular(ptr noundef %0) #1 {
  %2 = alloca ptr, align 8
  store ptr %0, ptr %2, align 8, !tbaa !8
  %3 = load ptr, ptr %2, align 8, !tbaa !8
  %4 = ptrtoint ptr %3 to i64
  %5 = and i64 %4, -2
  %6 = inttoptr i64 %5 to ptr
  ret ptr %6
}

; Function Attrs: inlinehint nounwind uwtable
define internal ptr @Ivy_ObjFanin1(ptr noundef %0) #1 {
  %2 = alloca ptr, align 8
  store ptr %0, ptr %2, align 8, !tbaa !8
  %3 = load ptr, ptr %2, align 8, !tbaa !8
  %4 = getelementptr inbounds nuw %struct.Ivy_Obj_t_, ptr %3, i32 0, i32 5
  %5 = load ptr, ptr %4, align 8, !tbaa !20
  %6 = call ptr @Ivy_Regular(ptr noundef %5)
  ret ptr %6
}

; Function Attrs: inlinehint nounwind uwtable
define internal void @Ivy_ObjRefsDec(ptr noundef %0) #1 {
  %2 = alloca ptr, align 8
  store ptr %0, ptr %2, align 8, !tbaa !8
  %3 = load ptr, ptr %2, align 8, !tbaa !8
  %4 = getelementptr inbounds nuw %struct.Ivy_Obj_t_, ptr %3, i32 0, i32 3
  %5 = load i32, ptr %4, align 4, !tbaa !42
  %6 = add nsw i32 %5, -1
  store i32 %6, ptr %4, align 4, !tbaa !42
  ret void
}

; Function Attrs: inlinehint nounwind uwtable
define internal ptr @Ivy_ObjFanin0(ptr noundef %0) #1 {
  %2 = alloca ptr, align 8
  store ptr %0, ptr %2, align 8, !tbaa !8
  %3 = load ptr, ptr %2, align 8, !tbaa !8
  %4 = getelementptr inbounds nuw %struct.Ivy_Obj_t_, ptr %3, i32 0, i32 4
  %5 = load ptr, ptr %4, align 8, !tbaa !19
  %6 = call ptr @Ivy_Regular(ptr noundef %5)
  ret ptr %6
}

; Function Attrs: nounwind uwtable
define void @Ivy_ObjDisconnect(ptr noundef %0, ptr noundef %1) #0 {
  %3 = alloca ptr, align 8
  %4 = alloca ptr, align 8
  store ptr %0, ptr %3, align 8, !tbaa !3
  store ptr %1, ptr %4, align 8, !tbaa !8
  %5 = load ptr, ptr %4, align 8, !tbaa !8
  %6 = getelementptr inbounds nuw %struct.Ivy_Obj_t_, ptr %5, i32 0, i32 4
  %7 = load ptr, ptr %6, align 8, !tbaa !19
  %8 = icmp ne ptr %7, null
  br i1 %8, label %9, label %22

9:                                                ; preds = %2
  %10 = load ptr, ptr %4, align 8, !tbaa !8
  %11 = call ptr @Ivy_ObjFanin0(ptr noundef %10)
  call void @Ivy_ObjRefsDec(ptr noundef %11)
  %12 = load ptr, ptr %3, align 8, !tbaa !3
  %13 = getelementptr inbounds nuw %struct.Ivy_Man_t_, ptr %12, i32 0, i32 15
  %14 = load i32, ptr %13, align 8, !tbaa !34
  %15 = icmp ne i32 %14, 0
  br i1 %15, label %16, label %21

16:                                               ; preds = %9
  %17 = load ptr, ptr %3, align 8, !tbaa !3
  %18 = load ptr, ptr %4, align 8, !tbaa !8
  %19 = call ptr @Ivy_ObjFanin0(ptr noundef %18)
  %20 = load ptr, ptr %4, align 8, !tbaa !8
  call void @Ivy_ObjDeleteFanout(ptr noundef %17, ptr noundef %19, ptr noundef %20)
  br label %21

21:                                               ; preds = %16, %9
  br label %22

22:                                               ; preds = %21, %2
  %23 = load ptr, ptr %4, align 8, !tbaa !8
  %24 = getelementptr inbounds nuw %struct.Ivy_Obj_t_, ptr %23, i32 0, i32 5
  %25 = load ptr, ptr %24, align 8, !tbaa !20
  %26 = icmp ne ptr %25, null
  br i1 %26, label %27, label %40

27:                                               ; preds = %22
  %28 = load ptr, ptr %4, align 8, !tbaa !8
  %29 = call ptr @Ivy_ObjFanin1(ptr noundef %28)
  call void @Ivy_ObjRefsDec(ptr noundef %29)
  %30 = load ptr, ptr %3, align 8, !tbaa !3
  %31 = getelementptr inbounds nuw %struct.Ivy_Man_t_, ptr %30, i32 0, i32 15
  %32 = load i32, ptr %31, align 8, !tbaa !34
  %33 = icmp ne i32 %32, 0
  br i1 %33, label %34, label %39

34:                                               ; preds = %27
  %35 = load ptr, ptr %3, align 8, !tbaa !3
  %36 = load ptr, ptr %4, align 8, !tbaa !8
  %37 = call ptr @Ivy_ObjFanin1(ptr noundef %36)
  %38 = load ptr, ptr %4, align 8, !tbaa !8
  call void @Ivy_ObjDeleteFanout(ptr noundef %35, ptr noundef %37, ptr noundef %38)
  br label %39

39:                                               ; preds = %34, %27
  br label %40

40:                                               ; preds = %39, %22
  %41 = load ptr, ptr %3, align 8, !tbaa !3
  %42 = load ptr, ptr %4, align 8, !tbaa !8
  call void @Ivy_TableDelete(ptr noundef %41, ptr noundef %42)
  %43 = load ptr, ptr %4, align 8, !tbaa !8
  %44 = getelementptr inbounds nuw %struct.Ivy_Obj_t_, ptr %43, i32 0, i32 4
  store ptr null, ptr %44, align 8, !tbaa !19
  %45 = load ptr, ptr %4, align 8, !tbaa !8
  %46 = getelementptr inbounds nuw %struct.Ivy_Obj_t_, ptr %45, i32 0, i32 5
  store ptr null, ptr %46, align 8, !tbaa !20
  ret void
}