; Function Attrs: nounwind uwtable
define void @Ivy_ObjDisconnect(ptr noundef %0, ptr noundef %1) local_unnamed_addr #0 {
  %3 = getelementptr inbounds nuw i8, ptr %1, i64 16
  %4 = load ptr, ptr %3, align 8, !tbaa !24
  %.not = icmp eq ptr %4, null
  br i1 %.not, label %15, label %5

5:                                                ; preds = %2
  %6 = ptrtoint ptr %4 to i64
  %7 = and i64 %6, -2
  %8 = inttoptr i64 %7 to ptr
  %9 = getelementptr inbounds nuw i8, ptr %8, i64 12
  %10 = load i32, ptr %9, align 4, !tbaa !26
  %11 = add nsw i32 %10, -1
  store i32 %11, ptr %9, align 4, !tbaa !26
  %12 = getelementptr inbounds nuw i8, ptr %0, i64 192
  %13 = load i32, ptr %12, align 8, !tbaa !27
  %.not16 = icmp eq i32 %13, 0
  br i1 %.not16, label %15, label %14

14:                                               ; preds = %5
  tail call void @Ivy_ObjDeleteFanout(ptr noundef nonnull %0, ptr noundef nonnull %8, ptr noundef nonnull %1) #7
  br label %15

15:                                               ; preds = %5, %14, %2
  %16 = getelementptr inbounds nuw i8, ptr %1, i64 24
  %17 = load ptr, ptr %16, align 8, !tbaa !25
  %.not17 = icmp eq ptr %17, null
  br i1 %.not17, label %28, label %18

18:                                               ; preds = %15
  %19 = ptrtoint ptr %17 to i64
  %20 = and i64 %19, -2
  %21 = inttoptr i64 %20 to ptr
  %22 = getelementptr inbounds nuw i8, ptr %21, i64 12
  %23 = load i32, ptr %22, align 4, !tbaa !26
  %24 = add nsw i32 %23, -1
  store i32 %24, ptr %22, align 4, !tbaa !26
  %25 = getelementptr inbounds nuw i8, ptr %0, i64 192
  %26 = load i32, ptr %25, align 8, !tbaa !27
  %.not18 = icmp eq i32 %26, 0
  br i1 %.not18, label %28, label %27

27:                                               ; preds = %18
  tail call void @Ivy_ObjDeleteFanout(ptr noundef nonnull %0, ptr noundef nonnull %21, ptr noundef nonnull %1) #7
  br label %28

28:                                               ; preds = %18, %27, %15
  tail call void @Ivy_TableDelete(ptr noundef %0, ptr noundef nonnull %1) #7
  tail call void @llvm.memset.p0.i64(ptr noundef nonnull align 8 dereferenceable(16) %3, i8 0, i64 16, i1 false)
  ret void
}